; Function Attrs: mustprogress uwtable
define internal fastcc void @_ZN8nlohmann16json_abi_v3_11_36detail10type_error6createIPNS0_10basic_jsonISt3mapSt6vectorNSt7__cxx1112basic_stringIcSt11char_traitsIcESaIcEEEblmdN12_GLOBAL__N_120allocator_no_forwardENS0_14adl_serializerES6_IhSaIhEEvEETnNSt9enable_ifIXsr21is_basic_json_contextIT_EE5valueEiE4typeELi0EEES2_iRKSC_SL_(ptr noalias align 8 %agg.result, i32 noundef %id_, ptr noundef nonnull align 8 dereferenceable(32) %what_arg) unnamed_addr #2 align 2 personality ptr @__gxx_personality_v0 {
entry:
  %ref.tmp.i7 = alloca %"class.std::allocator", align 1
  %ref.tmp.i = alloca i8, align 1
  %ref.tmp1.i = alloca %"class.std::__cxx11::basic_string", align 8
  %w = alloca %"class.std::__cxx11::basic_string", align 8
  %ref.tmp = alloca %"class.std::__cxx11::basic_string", align 8
  %ref.tmp1 = alloca %"class.std::__cxx11::basic_string", align 8
  %ref.tmp2 = alloca %"class.std::allocator", align 1
  %ref.tmp5 = alloca %"class.std::__cxx11::basic_string", align 8
  call void @_ZNSaIcEC1Ev(ptr noundef nonnull align 1 dereferenceable(1) %ref.tmp2) #17
  invoke void @_ZNSt7__cxx1112basic_stringIcSt11char_traitsIcESaIcEEC1EPKcRKS3_(ptr noundef nonnull align 8 dereferenceable(32) %ref.tmp1, ptr noundef nonnull @.str.43, ptr noundef nonnull align 1 dereferenceable(1) %ref.tmp2)
          to label %invoke.cont unwind label %lpad

invoke.cont:                                      ; preds = %entry
  call void @llvm.lifetime.start.p0(i64 1, ptr nonnull %ref.tmp.i)
  call void @llvm.lifetime.start.p0(i64 32, ptr nonnull %ref.tmp1.i)
  store i8 46, ptr %ref.tmp.i, align 1, !noalias !82
  call void @_ZNSt7__cxx119to_stringEi(ptr nonnull sret(%"class.std::__cxx11::basic_string") align 8 %ref.tmp1.i, i32 noundef %id_) #17, !noalias !82
  invoke void @_ZN8nlohmann16json_abi_v3_11_36detail6concatINSt7__cxx1112basic_stringIcSt11char_traitsIcESaIcEEEJRA17_KcRKS8_cS8_RA3_S9_EEET_DpOT0_(ptr nonnull sret(%"class.std::__cxx11::basic_string") align 8 %ref.tmp, ptr noundef nonnull align 1 dereferenceable(17) @.str.12, ptr noundef nonnull align 8 dereferenceable(32) %ref.tmp1, ptr noundef nonnull align 1 dereferenceable(1) %ref.tmp.i, ptr noundef nonnull align 8 dereferenceable(32) %ref.tmp1.i, ptr noundef nonnull align 1 dereferenceable(3) @.str.13)
          to label %invoke.cont4 unwind label %lpad.i

lpad.i:                                           ; preds = %invoke.cont
  %0 = landingpad { ptr, i32 }
          cleanup
  br label %ehcleanup10

invoke.cont4:                                     ; preds = %invoke.cont
  call void @_ZNSt7__cxx1112basic_stringIcSt11char_traitsIcESaIcEED1Ev(ptr noundef nonnull align 8 dereferenceable(32) %ref.tmp1.i) #17
  call void @llvm.lifetime.end.p0(i64 1, ptr nonnull %ref.tmp.i)
  call void @llvm.lifetime.end.p0(i64 32, ptr nonnull %ref.tmp1.i)
  call void @llvm.lifetime.start.p0(i64 1, ptr nonnull %ref.tmp.i7)
  call void @_ZNSaIcEC1Ev(ptr noundef nonnull align 1 dereferenceable(1) %ref.tmp.i7) #17, !noalias !85
  invoke void @_ZNSt7__cxx1112basic_stringIcSt11char_traitsIcESaIcEEC1EPKcRKS3_(ptr noundef nonnull align 8 dereferenceable(32) %ref.tmp5, ptr noundef nonnull @.str, ptr noundef nonnull align 1 dereferenceable(1) %ref.tmp.i7)
          to label %invoke.cont7 unwind label %lpad.i8

lpad.i8:                                          ; preds = %invoke.cont4
  %1 = landingpad { ptr, i32 }
          cleanup
  call void @_ZNSaIcED1Ev(ptr noundef nonnull align 1 dereferenceable(1) %ref.tmp.i7) #17
  br label %ehcleanup10

invoke.cont7:                                     ; preds = %invoke.cont4
  call void @_ZNSaIcED1Ev(ptr noundef nonnull align 1 dereferenceable(1) %ref.tmp.i7) #17
  call void @llvm.lifetime.end.p0(i64 1, ptr nonnull %ref.tmp.i7)
  invoke void @_ZN8nlohmann16json_abi_v3_11_36detail6concatINSt7__cxx1112basic_stringIcSt11char_traitsIcESaIcEEEJS8_S8_RKS8_EEET_DpOT0_(ptr nonnull sret(%"class.std::__cxx11::basic_string") align 8 %w, ptr noundef nonnull align 8 dereferenceable(32) %ref.tmp, ptr noundef nonnull align 8 dereferenceable(32) %ref.tmp5, ptr noundef nonnull align 8 dereferenceable(32) %what_arg)
          to label %invoke.cont9 unwind label %lpad8

invoke.cont9:                                     ; preds = %invoke.cont7
  call void @_ZNSt7__cxx1112basic_stringIcSt11char_traitsIcESaIcEED1Ev(ptr noundef nonnull align 8 dereferenceable(32) %ref.tmp5) #17
  call void @_ZNSt7__cxx1112basic_stringIcSt11char_traitsIcESaIcEED1Ev(ptr noundef nonnull align 8 dereferenceable(32) %ref.tmp) #17
  call void @_ZNSt7__cxx1112basic_stringIcSt11char_traitsIcESaIcEED1Ev(ptr noundef nonnull align 8 dereferenceable(32) %ref.tmp1) #17
  call void @_ZNSaIcED1Ev(ptr noundef nonnull align 1 dereferenceable(1) %ref.tmp2) #17
  %call = call noundef ptr @_ZNKSt7__cxx1112basic_stringIcSt11char_traitsIcESaIcEE5c_strEv(ptr noundef nonnull align 8 dereferenceable(32) %w) #17
  store ptr getelementptr inbounds ({ [5 x ptr] }, ptr @_ZTVN8nlohmann16json_abi_v3_11_36detail9exceptionE, i64 0, i32 0, i64 2), ptr %agg.result, align 8
  %id.i.i = getelementptr inbounds i8, ptr %agg.result, i64 8
  store i32 %id_, ptr %id.i.i, align 8
  %m.i.i = getelementptr inbounds i8, ptr %agg.result, i64 16
  invoke void @_ZNSt13runtime_errorC1EPKc(ptr noundef nonnull align 8 dereferenceable(16) %m.i.i, ptr noundef nonnull %call)
          to label %invoke.cont13 unwind label %lpad.i.i

lpad.i.i:                                         ; preds = %invoke.cont9
  %2 = landingpad { ptr, i32 }
          cleanup
  call void @_ZNSt9exceptionD2Ev(ptr noundef nonnull align 8 dereferenceable(8) %agg.result) #17
  call void @_ZNSt7__cxx1112basic_stringIcSt11char_traitsIcESaIcEED1Ev(ptr noundef nonnull align 8 dereferenceable(32) %w) #17
  br label %eh.resume

invoke.cont13:                                    ; preds = %invoke.cont9
  store ptr getelementptr inbounds ({ [5 x ptr] }, ptr @_ZTVN8nlohmann16json_abi_v3_11_36detail10type_errorE, i64 0, i32 0, i64 2), ptr %agg.result, align 8
  call void @_ZNSt7__cxx1112basic_stringIcSt11char_traitsIcESaIcEED1Ev(ptr noundef nonnull align 8 dereferenceable(32) %w) #17
  ret void

lpad:                                             ; preds = %entry
  %3 = landingpad { ptr, i32 }
          cleanup
  br label %ehcleanup11

lpad8:                                            ; preds = %invoke.cont7
  %4 = landingpad { ptr, i32 }
          cleanup
  call void @_ZNSt7__cxx1112basic_stringIcSt11char_traitsIcESaIcEED1Ev(ptr noundef nonnull align 8 dereferenceable(32) %ref.tmp5) #17
  br label %ehcleanup10

ehcleanup10:                                      ; preds = %lpad8, %lpad.i8, %lpad.i
  %ref.tmp1.i.sink = phi ptr [ %ref.tmp1.i, %lpad.i ], [ %ref.tmp, %lpad.i8 ], [ %ref.tmp, %lpad8 ]
  %.pn.pn = phi { ptr, i32 } [ %0, %lpad.i ], [ %1, %lpad.i8 ], [ %4, %lpad8 ]
  call void @_ZNSt7__cxx1112basic_stringIcSt11char_traitsIcESaIcEED1Ev(ptr noundef nonnull align 8 dereferenceable(32) %ref.tmp1.i.sink) #17
  call void @_ZNSt7__cxx1112basic_stringIcSt11char_traitsIcESaIcEED1Ev(ptr noundef nonnull align 8 dereferenceable(32) %ref.tmp1) #17
  br label %ehcleanup11

ehcleanup11:                                      ; preds = %ehcleanup10, %lpad
  %.pn.pn.pn = phi { ptr, i32 } [ %.pn.pn, %ehcleanup10 ], [ %3, %lpad ]
  call void @_ZNSaIcED1Ev(ptr noundef nonnull align 1 dereferenceable(1) %ref.tmp2) #17
  br label %eh.resume

eh.resume:                                        ; preds = %lpad.i.i, %ehcleanup11
  %.pn5 = phi { ptr, i32 } [ %2, %lpad.i.i ], [ %.pn.pn.pn, %ehcleanup11 ]
  resume { ptr, i32 } %.pn5
}